target datalayout = "e-m:e-p270:32:32-p271:32:32-p272:64:64-i64:64-i128:128-f80:128-n8:16:32:64-S128"
target triple = "x86_64-pc-linux-gnu"

%"class.cv::KeyPoint" = type { %"class.cv::Point_", float, float, float, i32, i32 }
%"class.cv::Point_" = type { float, float }
%"struct.std::_Vector_base" = type { %"struct.std::_Vector_base<int, std::allocator<int>>::_Vector_impl" }
%"struct.std::_Vector_base<int, std::allocator<int>>::_Vector_impl" = type { %"struct.std::_Vector_base<int, std::allocator<int>>::_Vector_impl_data" }
%"struct.std::_Vector_base<int, std::allocator<int>>::_Vector_impl_data" = type { ptr, ptr, ptr }
%"class.cv::Mat" = type { i32, i32, i32, i32, ptr, ptr, ptr, ptr, ptr, ptr, %"struct.cv::MatSize", %"struct.cv::MatStep" }
%"struct.cv::MatSize" = type { ptr }
%"struct.cv::MatStep" = type { ptr, [2 x i64] }

; Function Attrs: mustprogress nounwind uwtable
define linkonce_odr hidden noundef ptr @_ZNK2cv3Mat3ptrIhEEPKT_i(ptr noundef nonnull align 8 dereferenceable(96) %0, i32 noundef %1) #5 comdat align 2 {
  %3 = alloca ptr, align 8
  %4 = alloca i32, align 4
  store ptr %0, ptr %3, align 8
  store i32 %1, ptr %4, align 4
  %5 = load ptr, ptr %3, align 8
  %6 = getelementptr inbounds %"class.cv::Mat", ptr %5, i32 0, i32 4
  %7 = load ptr, ptr %6, align 8
  %8 = getelementptr inbounds %"class.cv::Mat", ptr %5, i32 0, i32 11
  %9 = getelementptr inbounds %"struct.cv::MatStep", ptr %8, i32 0, i32 0
  %10 = load ptr, ptr %9, align 8
  %11 = getelementptr inbounds i64, ptr %10, i64 0
  %12 = load i64, ptr %11, align 8
  %13 = load i32, ptr %4, align 4
  %14 = sext i32 %13 to i64
  %15 = mul i64 %12, %14
  %16 = getelementptr inbounds i8, ptr %7, i64 %15
  ret ptr %16
}

; Function Attrs: mustprogress nounwind uwtable
define linkonce_odr hidden noundef nonnull align 4 dereferenceable(4) ptr @_ZNKSt6vectorIiSaIiEEixEm(ptr noundef nonnull align 8 dereferenceable(24) %0, i64 noundef %1) #5 comdat align 2 {
  %3 = alloca ptr, align 8
  %4 = alloca i64, align 8
  store ptr %0, ptr %3, align 8
  store i64 %1, ptr %4, align 8
  %5 = load ptr, ptr %3, align 8
  %6 = getelementptr inbounds %"struct.std::_Vector_base", ptr %5, i32 0, i32 0
  %7 = getelementptr inbounds %"struct.std::_Vector_base<int, std::allocator<int>>::_Vector_impl_data", ptr %6, i32 0, i32 0
  %8 = load ptr, ptr %7, align 8
  %9 = load i64, ptr %4, align 8
  %10 = getelementptr inbounds i32, ptr %8, i64 %9
  ret ptr %10
}

; Function Attrs: mustprogress uwtable
define hidden void @_ZN2cv11xfeatures2d12CalcuateSumsEiRKSt6vectorIiSaIiEEbRKNS_3MatERKNS_8KeyPointERiSC_ffi(i32 noundef %0, ptr noundef nonnull align 8 dereferenceable(24) %1, i1 noundef zeroext %2, ptr noundef nonnull align 8 dereferenceable(96) %3, ptr noundef nonnull align 4 dereferenceable(28) %4, ptr noundef nonnull align 4 dereferenceable(4) %5, ptr noundef nonnull align 4 dereferenceable(4) %6, float noundef %7, float noundef %8, i32 noundef %9) #4 {
  %11 = alloca i32, align 4
  %12 = alloca ptr, align 8
  %13 = alloca i8, align 1
  %14 = alloca ptr, align 8
  %15 = alloca ptr, align 8
  %16 = alloca ptr, align 8
  %17 = alloca ptr, align 8
  %18 = alloca float, align 4
  %19 = alloca float, align 4
  %20 = alloca i32, align 4
  %21 = alloca i32, align 4
  %22 = alloca i32, align 4
  %23 = alloca i32, align 4
  %24 = alloca i32, align 4
  %25 = alloca i32, align 4
  %26 = alloca i32, align 4
  %27 = alloca i32, align 4
  %28 = alloca i32, align 4
  %29 = alloca i32, align 4
  %30 = alloca i32, align 4
  %31 = alloca i32, align 4
  %32 = alloca i32, align 4
  %33 = alloca i32, align 4
  %34 = alloca i32, align 4
  %35 = alloca ptr, align 8
  %36 = alloca ptr, align 8
  %37 = alloca ptr, align 8
  %38 = alloca i32, align 4
  %39 = alloca double, align 8
  %40 = alloca double, align 8
  store i32 %0, ptr %11, align 4
  store ptr %1, ptr %12, align 8
  %41 = zext i1 %2 to i8
  store i8 %41, ptr %13, align 1
  store ptr %3, ptr %14, align 8
  store ptr %4, ptr %15, align 8
  store ptr %5, ptr %16, align 8
  store ptr %6, ptr %17, align 8
  store float %7, ptr %18, align 4
  store float %8, ptr %19, align 4
  store i32 %9, ptr %20, align 4
  %42 = load ptr, ptr %12, align 8
  %43 = load i32, ptr %11, align 4
  %44 = sext i32 %43 to i64
  %45 = call noundef nonnull align 4 dereferenceable(4) ptr @_ZNKSt6vectorIiSaIiEEixEm(ptr noundef nonnull align 8 dereferenceable(24) %42, i64 noundef %44) #3
  %46 = load i32, ptr %45, align 4
  store i32 %46, ptr %21, align 4
  %47 = load ptr, ptr %12, align 8
  %48 = load i32, ptr %11, align 4
  %49 = add nsw i32 %48, 1
  %50 = sext i32 %49 to i64
  %51 = call noundef nonnull align 4 dereferenceable(4) ptr @_ZNKSt6vectorIiSaIiEEixEm(ptr noundef nonnull align 8 dereferenceable(24) %47, i64 noundef %50) #3
  %52 = load i32, ptr %51, align 4
  store i32 %52, ptr %22, align 4
  %53 = load ptr, ptr %12, align 8
  %54 = load i32, ptr %11, align 4
  %55 = add nsw i32 %54, 2
  %56 = sext i32 %55 to i64
  %57 = call noundef nonnull align 4 dereferenceable(4) ptr @_ZNKSt6vectorIiSaIiEEixEm(ptr noundef nonnull align 8 dereferenceable(24) %53, i64 noundef %56) #3
  %58 = load i32, ptr %57, align 4
  store i32 %58, ptr %23, align 4
  %59 = load ptr, ptr %12, align 8
  %60 = load i32, ptr %11, align 4
  %61 = add nsw i32 %60, 3
  %62 = sext i32 %61 to i64
  %63 = call noundef nonnull align 4 dereferenceable(4) ptr @_ZNKSt6vectorIiSaIiEEixEm(ptr noundef nonnull align 8 dereferenceable(24) %59, i64 noundef %62) #3
  %64 = load i32, ptr %63, align 4
  store i32 %64, ptr %24, align 4
  %65 = load ptr, ptr %12, align 8
  %66 = load i32, ptr %11, align 4
  %67 = add nsw i32 %66, 4
  %68 = sext i32 %67 to i64
  %69 = call noundef nonnull align 4 dereferenceable(4) ptr @_ZNKSt6vectorIiSaIiEEixEm(ptr noundef nonnull align 8 dereferenceable(24) %65, i64 noundef %68) #3
  %70 = load i32, ptr %69, align 4
  store i32 %70, ptr %25, align 4
  %71 = load ptr, ptr %12, align 8
  %72 = load i32, ptr %11, align 4
  %73 = add nsw i32 %72, 5
  %74 = sext i32 %73 to i64
  %75 = call noundef nonnull align 4 dereferenceable(4) ptr @_ZNKSt6vectorIiSaIiEEixEm(ptr noundef nonnull align 8 dereferenceable(24) %71, i64 noundef %74) #3
  %76 = load i32, ptr %75, align 4
  store i32 %76, ptr %26, align 4
  %77 = load i32, ptr %21, align 4
  store i32 %77, ptr %27, align 4
  %78 = load i32, ptr %22, align 4
  store i32 %78, ptr %28, align 4
  %79 = load i32, ptr %23, align 4
  store i32 %79, ptr %29, align 4
  %80 = load i32, ptr %24, align 4
  store i32 %80, ptr %30, align 4
  %81 = load i32, ptr %25, align 4
  store i32 %81, ptr %31, align 4
  %82 = load i32, ptr %26, align 4
  store i32 %82, ptr %32, align 4
  %83 = load i8, ptr %13, align 1
  %84 = trunc i8 %83 to i1
  br i1 %84, label %85, label %191

85:                                               ; preds = %10
  %86 = load i32, ptr %21, align 4
  %87 = sitofp i32 %86 to float
  %88 = load float, ptr %18, align 4
  %89 = load i32, ptr %22, align 4
  %90 = sitofp i32 %89 to float
  %91 = load float, ptr %19, align 4
  %92 = fmul float %90, %91
  %93 = fneg float %92
  %94 = call float @llvm.fmuladd.f32(float %87, float %88, float %93)
  %95 = fptosi float %94 to i32
  store i32 %95, ptr %27, align 4
  %96 = load i32, ptr %21, align 4
  %97 = sitofp i32 %96 to float
  %98 = load float, ptr %19, align 4
  %99 = load i32, ptr %22, align 4
  %100 = sitofp i32 %99 to float
  %101 = load float, ptr %18, align 4
  %102 = fmul float %100, %101
  %103 = call float @llvm.fmuladd.f32(float %97, float %98, float %102)
  %104 = fptosi float %103 to i32
  store i32 %104, ptr %28, align 4
  %105 = load i32, ptr %23, align 4
  %106 = sitofp i32 %105 to float
  %107 = load float, ptr %18, align 4
  %108 = load i32, ptr %24, align 4
  %109 = sitofp i32 %108 to float
  %110 = load float, ptr %19, align 4
  %111 = fmul float %109, %110
  %112 = fneg float %111
  %113 = call float @llvm.fmuladd.f32(float %106, float %107, float %112)
  %114 = fptosi float %113 to i32
  store i32 %114, ptr %29, align 4
  %115 = load i32, ptr %23, align 4
  %116 = sitofp i32 %115 to float
  %117 = load float, ptr %19, align 4
  %118 = load i32, ptr %24, align 4
  %119 = sitofp i32 %118 to float
  %120 = load float, ptr %18, align 4
  %121 = fmul float %119, %120
  %122 = call float @llvm.fmuladd.f32(float %116, float %117, float %121)
  %123 = fptosi float %122 to i32
  store i32 %123, ptr %30, align 4
  %124 = load i32, ptr %25, align 4
  %125 = sitofp i32 %124 to float
  %126 = load float, ptr %18, align 4
  %127 = load i32, ptr %26, align 4
  %128 = sitofp i32 %127 to float
  %129 = load float, ptr %19, align 4
  %130 = fmul float %128, %129
  %131 = fneg float %130
  %132 = call float @llvm.fmuladd.f32(float %125, float %126, float %131)
  %133 = fptosi float %132 to i32
  store i32 %133, ptr %31, align 4
  %134 = load i32, ptr %25, align 4
  %135 = sitofp i32 %134 to float
  %136 = load float, ptr %19, align 4
  %137 = load i32, ptr %26, align 4
  %138 = sitofp i32 %137 to float
  %139 = load float, ptr %18, align 4
  %140 = fmul float %138, %139
  %141 = call float @llvm.fmuladd.f32(float %135, float %136, float %140)
  %142 = fptosi float %141 to i32
  store i32 %142, ptr %32, align 4
  %143 = load i32, ptr %27, align 4
  %144 = icmp sgt i32 %143, 24
  br i1 %144, label %145, label %146

145:                                              ; preds = %85
  store i32 24, ptr %27, align 4
  br label %146

146:                                              ; preds = %145, %85
  %147 = load i32, ptr %27, align 4
  %148 = icmp slt i32 %147, -24
  br i1 %148, label %149, label %150

149:                                              ; preds = %146
  store i32 -24, ptr %27, align 4
  br label %150

150:                                              ; preds = %149, %146
  %151 = load i32, ptr %28, align 4
  %152 = icmp sgt i32 %151, 24
  br i1 %152, label %153, label %154

153:                                              ; preds = %150
  store i32 24, ptr %28, align 4
  br label %154

154:                                              ; preds = %153, %150
  %155 = load i32, ptr %28, align 4
  %156 = icmp slt i32 %155, -24
  br i1 %156, label %157, label %158

157:                                              ; preds = %154
  store i32 -24, ptr %28, align 4
  br label %158

158:                                              ; preds = %157, %154
  %159 = load i32, ptr %29, align 4
  %160 = icmp sgt i32 %159, 24
  br i1 %160, label %161, label %162

161:                                              ; preds = %158
  store i32 24, ptr %29, align 4
  br label %162

162:                                              ; preds = %161, %158
  %163 = load i32, ptr %29, align 4
  %164 = icmp slt i32 %163, -24
  br i1 %164, label %165, label %166

165:                                              ; preds = %162
  store i32 -24, ptr %29, align 4
  br label %166

166:                                              ; preds = %165, %162
  %167 = load i32, ptr %30, align 4
  %168 = icmp sgt i32 %167, 24
  br i1 %168, label %169, label %170

169:                                              ; preds = %166
  store i32 24, ptr %30, align 4
  br label %170

170:                                              ; preds = %169, %166
  %171 = load i32, ptr %30, align 4
  %172 = icmp slt i32 %171, -24
  br i1 %172, label %173, label %174

173:                                              ; preds = %170
  store i32 -24, ptr %30, align 4
  br label %174

174:                                              ; preds = %173, %170
  %175 = load i32, ptr %31, align 4
  %176 = icmp sgt i32 %175, 24
  br i1 %176, label %177, label %178

177:                                              ; preds = %174
  store i32 24, ptr %31, align 4
  br label %178

178:                                              ; preds = %177, %174
  %179 = load i32, ptr %31, align 4
  %180 = icmp slt i32 %179, -24
  br i1 %180, label %181, label %182

181:                                              ; preds = %178
  store i32 -24, ptr %31, align 4
  br label %182

182:                                              ; preds = %181, %178
  %183 = load i32, ptr %32, align 4
  %184 = icmp sgt i32 %183, 24
  br i1 %184, label %185, label %186

185:                                              ; preds = %182
  store i32 24, ptr %32, align 4
  br label %186

186:                                              ; preds = %185, %182
  %187 = load i32, ptr %32, align 4
  %188 = icmp slt i32 %187, -24
  br i1 %188, label %189, label %190

189:                                              ; preds = %186
  store i32 -24, ptr %32, align 4
  br label %190

190:                                              ; preds = %189, %186
  br label %191

191:                                              ; preds = %190, %10
  %192 = load ptr, ptr %15, align 8
  %193 = getelementptr inbounds %"class.cv::KeyPoint", ptr %192, i32 0, i32 0
  %194 = getelementptr inbounds %"class.cv::Point_", ptr %193, i32 0, i32 0
  %195 = load float, ptr %194, align 4
  %196 = fpext float %195 to double
  %197 = fadd double %196, 5.000000e-01
  %198 = fptosi double %197 to i32
  %199 = load i32, ptr %27, align 4
  %200 = add nsw i32 %199, %198
  store i32 %200, ptr %27, align 4
  %201 = load ptr, ptr %15, align 8
  %202 = getelementptr inbounds %"class.cv::KeyPoint", ptr %201, i32 0, i32 0
  %203 = getelementptr inbounds %"class.cv::Point_", ptr %202, i32 0, i32 1
  %204 = load float, ptr %203, align 4
  %205 = fpext float %204 to double
  %206 = fadd double %205, 5.000000e-01
  %207 = fptosi double %206 to i32
  %208 = load i32, ptr %28, align 4
  %209 = add nsw i32 %208, %207
  store i32 %209, ptr %28, align 4
  %210 = load ptr, ptr %15, align 8
  %211 = getelementptr inbounds %"class.cv::KeyPoint", ptr %210, i32 0, i32 0
  %212 = getelementptr inbounds %"class.cv::Point_", ptr %211, i32 0, i32 0
  %213 = load float, ptr %212, align 4
  %214 = fpext float %213 to double
  %215 = fadd double %214, 5.000000e-01
  %216 = fptosi double %215 to i32
  %217 = load i32, ptr %29, align 4
  %218 = add nsw i32 %217, %216
  store i32 %218, ptr %29, align 4
  %219 = load ptr, ptr %15, align 8
  %220 = getelementptr inbounds %"class.cv::KeyPoint", ptr %219, i32 0, i32 0
  %221 = getelementptr inbounds %"class.cv::Point_", ptr %220, i32 0, i32 1
  %222 = load float, ptr %221, align 4
  %223 = fpext float %222 to double
  %224 = fadd double %223, 5.000000e-01
  %225 = fptosi double %224 to i32
  %226 = load i32, ptr %30, align 4
  %227 = add nsw i32 %226, %225
  store i32 %227, ptr %30, align 4
  %228 = load ptr, ptr %15, align 8
  %229 = getelementptr inbounds %"class.cv::KeyPoint", ptr %228, i32 0, i32 0
  %230 = getelementptr inbounds %"class.cv::Point_", ptr %229, i32 0, i32 0
  %231 = load float, ptr %230, align 4
  %232 = fpext float %231 to double
  %233 = fadd double %232, 5.000000e-01
  %234 = fptosi double %233 to i32
  %235 = load i32, ptr %31, align 4
  %236 = add nsw i32 %235, %234
  store i32 %236, ptr %31, align 4
  %237 = load ptr, ptr %15, align 8
  %238 = getelementptr inbounds %"class.cv::KeyPoint", ptr %237, i32 0, i32 0
  %239 = getelementptr inbounds %"class.cv::Point_", ptr %238, i32 0, i32 1
  %240 = load float, ptr %239, align 4
  %241 = fpext float %240 to double
  %242 = fadd double %241, 5.000000e-01
  %243 = fptosi double %242 to i32
  %244 = load i32, ptr %32, align 4
  %245 = add nsw i32 %244, %243
  store i32 %245, ptr %32, align 4
  %246 = load i32, ptr %20, align 4
  store i32 %246, ptr %33, align 4
  %247 = load i32, ptr %33, align 4
  %248 = sub nsw i32 0, %247
  store i32 %248, ptr %34, align 4
  br label %249

249:                                              ; preds = %330, %191
  %250 = load i32, ptr %34, align 4
  %251 = load i32, ptr %33, align 4
  %252 = icmp sle i32 %250, %251
  br i1 %252, label %253, label %333

253:                                              ; preds = %249
  %254 = load ptr, ptr %14, align 8
  %255 = load i32, ptr %28, align 4
  %256 = load i32, ptr %34, align 4
  %257 = add nsw i32 %255, %256
  %258 = call noundef ptr @_ZNK2cv3Mat3ptrIhEEPKT_i(ptr noundef nonnull align 8 dereferenceable(96) %254, i32 noundef %257)
  store ptr %258, ptr %35, align 8
  %259 = load ptr, ptr %14, align 8
  %260 = load i32, ptr %30, align 4
  %261 = load i32, ptr %34, align 4
  %262 = add nsw i32 %260, %261
  %263 = call noundef ptr @_ZNK2cv3Mat3ptrIhEEPKT_i(ptr noundef nonnull align 8 dereferenceable(96) %259, i32 noundef %262)
  store ptr %263, ptr %36, align 8
  %264 = load ptr, ptr %14, align 8
  %265 = load i32, ptr %32, align 4
  %266 = load i32, ptr %34, align 4
  %267 = add nsw i32 %265, %266
  %268 = call noundef ptr @_ZNK2cv3Mat3ptrIhEEPKT_i(ptr noundef nonnull align 8 dereferenceable(96) %264, i32 noundef %267)
  store ptr %268, ptr %37, align 8
  %269 = load i32, ptr %33, align 4
  %270 = sub nsw i32 0, %269
  store i32 %270, ptr %38, align 4
  br label %271

271:                                              ; preds = %326, %253
  %272 = load i32, ptr %38, align 4
  %273 = load i32, ptr %33, align 4
  %274 = icmp sle i32 %272, %273
  br i1 %274, label %275, label %329

275:                                              ; preds = %271
  %276 = load ptr, ptr %35, align 8
  %277 = load i32, ptr %27, align 4
  %278 = load i32, ptr %38, align 4
  %279 = add nsw i32 %277, %278
  %280 = sext i32 %279 to i64
  %281 = getelementptr inbounds i8, ptr %276, i64 %280
  %282 = load i8, ptr %281, align 1
  %283 = zext i8 %282 to i32
  %284 = load ptr, ptr %36, align 8
  %285 = load i32, ptr %29, align 4
  %286 = load i32, ptr %38, align 4
  %287 = add nsw i32 %285, %286
  %288 = sext i32 %287 to i64
  %289 = getelementptr inbounds i8, ptr %284, i64 %288
  %290 = load i8, ptr %289, align 1
  %291 = zext i8 %290 to i32
  %292 = sub nsw i32 %283, %291
  %293 = sitofp i32 %292 to double
  store double %293, ptr %39, align 8
  %294 = load double, ptr %39, align 8
  %295 = load double, ptr %39, align 8
  %296 = fmul double %294, %295
  %297 = fptosi double %296 to i32
  %298 = load ptr, ptr %16, align 8
  %299 = load i32, ptr %298, align 4
  %300 = add nsw i32 %299, %297
  store i32 %300, ptr %298, align 4
  %301 = load ptr, ptr %37, align 8
  %302 = load i32, ptr %31, align 4
  %303 = load i32, ptr %38, align 4
  %304 = add nsw i32 %302, %303
  %305 = sext i32 %304 to i64
  %306 = getelementptr inbounds i8, ptr %301, i64 %305
  %307 = load i8, ptr %306, align 1
  %308 = zext i8 %307 to i32
  %309 = load ptr, ptr %36, align 8
  %310 = load i32, ptr %29, align 4
  %311 = load i32, ptr %38, align 4
  %312 = add nsw i32 %310, %311
  %313 = sext i32 %312 to i64
  %314 = getelementptr inbounds i8, ptr %309, i64 %313
  %315 = load i8, ptr %314, align 1
  %316 = zext i8 %315 to i32
  %317 = sub nsw i32 %308, %316
  %318 = sitofp i32 %317 to double
  store double %318, ptr %40, align 8
  %319 = load double, ptr %40, align 8
  %320 = load double, ptr %40, align 8
  %321 = fmul double %319, %320
  %322 = fptosi double %321 to i32
  %323 = load ptr, ptr %17, align 8
  %324 = load i32, ptr %323, align 4
  %325 = add nsw i32 %324, %322
  store i32 %325, ptr %323, align 4
  br label %326

326:                                              ; preds = %275
  %327 = load i32, ptr %38, align 4
  %328 = add nsw i32 %327, 1
  store i32 %328, ptr %38, align 4
  br label %271, !llvm.loop !4

329:                                              ; preds = %271
  br label %330

330:                                              ; preds = %329
  %331 = load i32, ptr %34, align 4
  %332 = add nsw i32 %331, 1
  store i32 %332, ptr %34, align 4
  br label %249, !llvm.loop !6

333:                                              ; preds = %249
  ret void
}