; Function Attrs: mustprogress nofree norecurse nosync nounwind memory(read, argmem: readwrite, inaccessiblemem: none) uwtable
define hidden void @_ZN2cv11xfeatures2d12CalcuateSumsEiRKSt6vectorIiSaIiEEbRKNS_3MatERKNS_8KeyPointERiSC_ffi(i32 noundef %0, ptr nocapture noundef nonnull readonly align 8 dereferenceable(24) %1, i1 noundef zeroext %2, ptr nocapture noundef nonnull readonly align 8 dereferenceable(96) %3, ptr nocapture noundef nonnull readonly align 4 dereferenceable(28) %4, ptr nocapture noundef nonnull align 4 dereferenceable(4) %5, ptr nocapture noundef nonnull align 4 dereferenceable(4) %6, float noundef %7, float noundef %8, i32 noundef %9) local_unnamed_addr #5 {
  %11 = sext i32 %0 to i64
  %12 = load ptr, ptr %1, align 8
  %13 = getelementptr i32, ptr %12, i64 %11
  %14 = load i32, ptr %13, align 4
  %15 = getelementptr i8, ptr %13, i64 4
  %16 = load i32, ptr %15, align 4
  %17 = getelementptr i8, ptr %13, i64 8
  %18 = load <4 x i32>, ptr %17, align 4
  %19 = shufflevector <4 x i32> %18, <4 x i32> poison, <4 x i32> <i32 3, i32 1, i32 2, i32 0>
  br i1 %2, label %20, label %46

20:                                               ; preds = %10
  %21 = sitofp i32 %14 to float
  %22 = sitofp i32 %16 to float
  %23 = fneg float %22
  %24 = fmul float %23, %8
  %25 = tail call float @llvm.fmuladd.f32(float %21, float %7, float %24)
  %26 = fptosi float %25 to i32
  %27 = fmul float %22, %7
  %28 = tail call float @llvm.fmuladd.f32(float %21, float %8, float %27)
  %29 = fptosi float %28 to i32
  %30 = shufflevector <4 x i32> %18, <4 x i32> poison, <2 x i32> <i32 2, i32 0>
  %31 = sitofp <2 x i32> %30 to <2 x float>
  %32 = shufflevector <2 x float> %31, <2 x float> poison, <4 x i32> <i32 0, i32 1, i32 0, i32 1>
  %33 = shufflevector <4 x i32> %19, <4 x i32> poison, <2 x i32> <i32 0, i32 1>
  %34 = sitofp <2 x i32> %33 to <2 x float>
  %35 = fneg <2 x float> %34
  %spec.store.select = tail call i32 @llvm.smin.i32(i32 %26, i32 24)
  %spec.store.select6 = tail call i32 @llvm.smax.i32(i32 %spec.store.select, i32 -24)
  %spec.store.select1 = tail call i32 @llvm.smin.i32(i32 %29, i32 24)
  %spec.store.select9 = tail call i32 @llvm.smax.i32(i32 %spec.store.select1, i32 -24)
  %36 = shufflevector <2 x float> %34, <2 x float> %35, <4 x i32> <i32 0, i32 1, i32 2, i32 3>
  %37 = insertelement <4 x float> poison, float %7, i64 0
  %38 = insertelement <4 x float> %37, float %8, i64 1
  %39 = shufflevector <4 x float> %38, <4 x float> poison, <4 x i32> <i32 0, i32 0, i32 1, i32 1>
  %40 = fmul <4 x float> %36, %39
  %41 = shufflevector <4 x float> %38, <4 x float> poison, <4 x i32> <i32 1, i32 1, i32 0, i32 0>
  %42 = tail call <4 x float> @llvm.fmuladd.v4f32(<4 x float> %32, <4 x float> %41, <4 x float> %40)
  %43 = fptosi <4 x float> %42 to <4 x i32>
  %44 = tail call <4 x i32> @llvm.smin.v4i32(<4 x i32> %43, <4 x i32> <i32 24, i32 24, i32 24, i32 24>)
  %45 = tail call <4 x i32> @llvm.smax.v4i32(<4 x i32> %44, <4 x i32> <i32 -24, i32 -24, i32 -24, i32 -24>)
  br label %46

46:                                               ; preds = %20, %10
  %.0113 = phi i32 [ %spec.store.select9, %20 ], [ %16, %10 ]
  %.0 = phi i32 [ %spec.store.select6, %20 ], [ %14, %10 ]
  %47 = phi <4 x i32> [ %45, %20 ], [ %19, %10 ]
  %.not124 = icmp slt i32 %9, 0
  br i1 %.not124, label %._crit_edge128, label %.lr.ph127

.lr.ph127:                                        ; preds = %46
  %48 = sub nsw i32 0, %9
  %49 = getelementptr inbounds i8, ptr %4, i64 4
  %50 = load float, ptr %49, align 4
  %51 = fpext float %50 to double
  %52 = fadd double %51, 5.000000e-01
  %53 = fptosi double %52 to i32
  %54 = extractelement <4 x i32> %47, i64 0
  %55 = add nsw i32 %54, %53
  %56 = load float, ptr %4, align 4
  %57 = fpext float %56 to double
  %58 = fadd double %57, 5.000000e-01
  %59 = fptosi double %58 to i32
  %60 = extractelement <4 x i32> %47, i64 2
  %61 = add nsw i32 %60, %59
  %62 = extractelement <4 x i32> %47, i64 1
  %63 = add nsw i32 %62, %53
  %64 = extractelement <4 x i32> %47, i64 3
  %65 = add nsw i32 %64, %59
  %66 = add nsw i32 %.0113, %53
  %67 = add nsw i32 %.0, %59
  %68 = getelementptr inbounds i8, ptr %3, i64 16
  %69 = getelementptr inbounds i8, ptr %3, i64 72
  %70 = sext i32 %48 to i64
  %71 = sext i32 %67 to i64
  %72 = sext i32 %65 to i64
  %73 = sext i32 %61 to i64
  %74 = add nuw i32 %9, 1
  %75 = sext i32 %66 to i64
  %76 = sext i32 %63 to i64
  %77 = sext i32 %55 to i64
  br label %.lr.ph

.lr.ph:                                           ; preds = %.lr.ph127, %._crit_edge
  %indvars.iv130 = phi i64 [ %70, %.lr.ph127 ], [ %indvars.iv.next131, %._crit_edge ]
  %78 = add nsw i64 %indvars.iv130, %75
  %79 = load ptr, ptr %68, align 8
  %80 = load ptr, ptr %69, align 8
  %81 = load i64, ptr %80, align 8
  %82 = mul i64 %81, %78
  %83 = getelementptr inbounds i8, ptr %79, i64 %82
  %84 = add nsw i64 %indvars.iv130, %76
  %85 = mul i64 %81, %84
  %86 = getelementptr inbounds i8, ptr %79, i64 %85
  %87 = add nsw i64 %indvars.iv130, %77
  %88 = mul i64 %81, %87
  %89 = getelementptr inbounds i8, ptr %79, i64 %88
  %invariant.gep = getelementptr i8, ptr %83, i64 %71
  %invariant.gep135 = getelementptr i8, ptr %86, i64 %72
  %invariant.gep137 = getelementptr i8, ptr %89, i64 %73
  br label %90

90:                                               ; preds = %.lr.ph, %90
  %indvars.iv = phi i64 [ %70, %.lr.ph ], [ %indvars.iv.next, %90 ]
  %gep = getelementptr i8, ptr %invariant.gep, i64 %indvars.iv
  %91 = load i8, ptr %gep, align 1
  %92 = zext i8 %91 to i32
  %gep136 = getelementptr i8, ptr %invariant.gep135, i64 %indvars.iv
  %93 = load i8, ptr %gep136, align 1
  %94 = zext i8 %93 to i32
  %95 = sub nsw i32 %92, %94
  %96 = sitofp i32 %95 to double
  %97 = fmul double %96, %96
  %98 = fptosi double %97 to i32
  %99 = load i32, ptr %5, align 4
  %100 = add nsw i32 %99, %98
  store i32 %100, ptr %5, align 4
  %gep138 = getelementptr i8, ptr %invariant.gep137, i64 %indvars.iv
  %101 = load i8, ptr %gep138, align 1
  %102 = zext i8 %101 to i32
  %103 = load i8, ptr %gep136, align 1
  %104 = zext i8 %103 to i32
  %105 = sub nsw i32 %102, %104
  %106 = sitofp i32 %105 to double
  %107 = fmul double %106, %106
  %108 = fptosi double %107 to i32
  %109 = load i32, ptr %6, align 4
  %110 = add nsw i32 %109, %108
  store i32 %110, ptr %6, align 4
  %indvars.iv.next = add nsw i64 %indvars.iv, 1
  %lftr.wideiv = trunc i64 %indvars.iv.next to i32
  %exitcond.not = icmp eq i32 %74, %lftr.wideiv
  br i1 %exitcond.not, label %._crit_edge, label %90, !llvm.loop !13

._crit_edge:                                      ; preds = %90
  %indvars.iv.next131 = add nsw i64 %indvars.iv130, 1
  %lftr.wideiv133 = trunc i64 %indvars.iv.next131 to i32
  %exitcond134.not = icmp eq i32 %74, %lftr.wideiv133
  br i1 %exitcond134.not, label %._crit_edge128, label %.lr.ph, !llvm.loop !15

._crit_edge128:                                   ; preds = %._crit_edge, %46
  ret void
}